; Function Attrs: mustprogress uwtable
define void @_ZN5arrow3ipc11AlignStreamEPNS_2io11InputStreamEi(ptr dead_on_unwind noalias writable sret(%"class.arrow::Status") align 8 %0, ptr noundef %1, i32 noundef %2) local_unnamed_addr #0 personality ptr @__gxx_personality_v0 {
  %4 = alloca %"class.arrow::Result.53", align 8
  call void @llvm.lifetime.start.p0(i64 16, ptr nonnull %4) #29
  %5 = load ptr, ptr %1, align 8, !tbaa !20
  %6 = getelementptr i8, ptr %5, i64 -56
  %7 = load i64, ptr %6, align 8
  %8 = getelementptr inbounds i8, ptr %1, i64 %7
  %9 = load ptr, ptr %8, align 8, !tbaa !20
  %10 = getelementptr inbounds nuw i8, ptr %9, i64 40
  %11 = load ptr, ptr %10, align 8
  call void %11(ptr dead_on_unwind nonnull writable sret(%"class.arrow::Result.53") align 8 %4, ptr noundef nonnull align 8 dereferenceable(28) %8)
  %12 = load ptr, ptr %4, align 8, !tbaa !28
  %13 = icmp eq ptr %12, null
  br i1 %13, label %17, label %14, !prof !31

14:                                               ; preds = %3
  store ptr null, ptr %0, align 8, !tbaa !28
  invoke void @_ZN5arrow6Status8CopyFromERKS0_(ptr noundef nonnull align 8 dereferenceable(8) %0, ptr noundef nonnull align 8 dereferenceable(8) %4)
          to label %_ZN5arrow6StatusC2ERKS0_.exit unwind label %15

15:                                               ; preds = %14
  %16 = landingpad { ptr, i32 }
          cleanup
  br label %33

17:                                               ; preds = %3
  %18 = getelementptr inbounds nuw i8, ptr %4, i64 8
  %19 = load i64, ptr %18, align 8, !tbaa !64
  %20 = sext i32 %2 to i64
  %21 = add nsw i64 %20, -1
  %22 = add i64 %21, %19
  %23 = srem i64 %22, %20
  %24 = sub nsw i64 %21, %23
  invoke void @_ZN5arrow2io11InputStream7AdvanceEl(ptr dead_on_unwind writable sret(%"class.arrow::Status") align 8 %0, ptr noundef nonnull align 8 dereferenceable(8) %1, i64 noundef %24)
          to label %_ZN5arrow6StatusC2ERKS0_.exit unwind label %25

25:                                               ; preds = %17
  %26 = landingpad { ptr, i32 }
          cleanup
  br label %33

_ZN5arrow6StatusC2ERKS0_.exit:                    ; preds = %14, %17
  %27 = load ptr, ptr %4, align 8, !tbaa !28
  %.not.i.i = icmp eq ptr %27, null
  br i1 %.not.i.i, label %_ZN5arrow6ResultIlED2Ev.exit, label %28, !prof !31

28:                                               ; preds = %_ZN5arrow6StatusC2ERKS0_.exit
  %29 = getelementptr inbounds nuw i8, ptr %27, i64 1
  %30 = load i8, ptr %29, align 1, !tbaa !32, !range !43, !noundef !44
  %31 = trunc nuw i8 %30 to i1
  br i1 %31, label %_ZN5arrow6ResultIlED2Ev.exit, label %32

32:                                               ; preds = %28
  call void @_ZN5arrow6Status11DeleteStateEv(ptr noundef nonnull align 8 dereferenceable(16) %4) #29
  br label %_ZN5arrow6ResultIlED2Ev.exit

_ZN5arrow6ResultIlED2Ev.exit:                     ; preds = %_ZN5arrow6StatusC2ERKS0_.exit, %28, %32
  call void @llvm.lifetime.end.p0(i64 16, ptr nonnull %4) #29
  ret void

33:                                               ; preds = %25, %15
  %.pn = phi { ptr, i32 } [ %16, %15 ], [ %26, %25 ]
  %34 = load ptr, ptr %4, align 8, !tbaa !28
  %.not.i.i11 = icmp eq ptr %34, null
  br i1 %.not.i.i11, label %_ZN5arrow6ResultIlED2Ev.exit12, label %35, !prof !31

35:                                               ; preds = %33
  %36 = getelementptr inbounds nuw i8, ptr %34, i64 1
  %37 = load i8, ptr %36, align 1, !tbaa !32, !range !43, !noundef !44
  %38 = trunc nuw i8 %37 to i1
  br i1 %38, label %_ZN5arrow6ResultIlED2Ev.exit12, label %39

39:                                               ; preds = %35
  call void @_ZN5arrow6Status11DeleteStateEv(ptr noundef nonnull align 8 dereferenceable(16) %4) #29
  br label %_ZN5arrow6ResultIlED2Ev.exit12

_ZN5arrow6ResultIlED2Ev.exit12:                   ; preds = %33, %35, %39
  call void @llvm.lifetime.end.p0(i64 16, ptr nonnull %4) #29
  resume { ptr, i32 } %.pn
}